; Function Attrs: mustprogress nofree norecurse nosync nounwind willreturn memory(read, inaccessiblemem: none) uwtable
define internal i32 @compare_finfo_layer(ptr noundef readonly captures(none) %0, ptr noundef readonly captures(none) %1) #7 {
  %3 = load ptr, ptr %0, align 8
  %4 = load ptr, ptr %1, align 8
  %5 = getelementptr inbounds nuw i8, ptr %3, i64 60
  %6 = load i32, ptr %5, align 4
  %7 = getelementptr inbounds nuw i8, ptr %4, i64 60
  %8 = load i32, ptr %7, align 4
  %9 = sub i32 %6, %8
  ret i32 %9
}